; ModuleID = '53/1708.c'
source_filename = "53/1708.c"
target datalayout = "e-m:e-p270:32:32-p271:32:32-p272:64:64-i64:64-f80:128-n8:16:32:64-S128"
target triple = "x86_64-pc-linux-gnu"

@.str = private unnamed_addr constant [3 x i8] c"%d\00", align 1
@.str.1 = private unnamed_addr constant [4 x i8] c",%d\00", align 1

; Function Attrs: noinline nounwind uwtable
define dso_local i32 @main() #0 {
  %1 = alloca i32, align 4
  %2 = alloca i32, align 4
  %3 = alloca [300 x [2 x i32]], align 16
  %4 = alloca i32, align 4
  %5 = alloca i32, align 4
  store i32 0, i32* %1, align 4
  %6 = call i32 (i8*, ...) @__isoc99_scanf(i8* getelementptr inbounds ([3 x i8], [3 x i8]* @.str, i64 0, i64 0), i32* %2)
  store i32 0, i32* %4, align 4
  br label %7

7:                                                ; preds = %21, %0
  %8 = load i32, i32* %4, align 4
  %9 = load i32, i32* %2, align 4
  %10 = icmp slt i32 %8, %9
  br i1 %10, label %11, label %24

11:                                               ; preds = %7
  %12 = load i32, i32* %4, align 4
  %13 = sext i32 %12 to i64
  %14 = getelementptr inbounds [300 x [2 x i32]], [300 x [2 x i32]]* %3, i64 0, i64 %13
  %15 = getelementptr inbounds [2 x i32], [2 x i32]* %14, i64 0, i64 0
  %16 = call i32 (i8*, ...) @__isoc99_scanf(i8* getelementptr inbounds ([3 x i8], [3 x i8]* @.str, i64 0, i64 0), i32* %15)
  %17 = load i32, i32* %4, align 4
  %18 = sext i32 %17 to i64
  %19 = getelementptr inbounds [300 x [2 x i32]], [300 x [2 x i32]]* %3, i64 0, i64 %18
  %20 = getelementptr inbounds [2 x i32], [2 x i32]* %19, i64 0, i64 1
  store i32 1, i32* %20, align 4
  br label %21

21:                                               ; preds = %11
  %22 = load i32, i32* %4, align 4
  %23 = add nsw i32 %22, 1
  store i32 %23, i32* %4, align 4
  br label %7

24:                                               ; preds = %7
  store i32 0, i32* %4, align 4
  br label %25

25:                                               ; preds = %66, %24
  %26 = load i32, i32* %4, align 4
  %27 = load i32, i32* %2, align 4
  %28 = icmp slt i32 %26, %27
  br i1 %28, label %29, label %69

29:                                               ; preds = %25
  %30 = load i32, i32* %4, align 4
  %31 = sext i32 %30 to i64
  %32 = getelementptr inbounds [300 x [2 x i32]], [300 x [2 x i32]]* %3, i64 0, i64 %31
  %33 = getelementptr inbounds [2 x i32], [2 x i32]* %32, i64 0, i64 1
  %34 = load i32, i32* %33, align 4
  %35 = icmp eq i32 %34, 1
  br i1 %35, label %36, label %65

36:                                               ; preds = %29
  %37 = load i32, i32* %4, align 4
  %38 = add nsw i32 %37, 1
  store i32 %38, i32* %5, align 4
  br label %39

39:                                               ; preds = %61, %36
  %40 = load i32, i32* %5, align 4
  %41 = load i32, i32* %2, align 4
  %42 = icmp slt i32 %40, %41
  br i1 %42, label %43, label %64

43:                                               ; preds = %39
  %44 = load i32, i32* %5, align 4
  %45 = sext i32 %44 to i64
  %46 = getelementptr inbounds [300 x [2 x i32]], [300 x [2 x i32]]* %3, i64 0, i64 %45
  %47 = getelementptr inbounds [2 x i32], [2 x i32]* %46, i64 0, i64 0
  %48 = load i32, i32* %47, align 8
  %49 = load i32, i32* %4, align 4
  %50 = sext i32 %49 to i64
  %51 = getelementptr inbounds [300 x [2 x i32]], [300 x [2 x i32]]* %3, i64 0, i64 %50
  %52 = getelementptr inbounds [2 x i32], [2 x i32]* %51, i64 0, i64 0
  %53 = load i32, i32* %52, align 8
  %54 = icmp eq i32 %48, %53
  br i1 %54, label %55, label %60

55:                                               ; preds = %43
  %56 = load i32, i32* %5, align 4
  %57 = sext i32 %56 to i64
  %58 = getelementptr inbounds [300 x [2 x i32]], [300 x [2 x i32]]* %3, i64 0, i64 %57
  %59 = getelementptr inbounds [2 x i32], [2 x i32]* %58, i64 0, i64 1
  store i32 0, i32* %59, align 4
  br label %60

60:                                               ; preds = %55, %43
  br label %61

61:                                               ; preds = %60
  %62 = load i32, i32* %5, align 4
  %63 = add nsw i32 %62, 1
  store i32 %63, i32* %5, align 4
  br label %39

64:                                               ; preds = %39
  br label %65

65:                                               ; preds = %64, %29
  br label %66

66:                                               ; preds = %65
  %67 = load i32, i32* %4, align 4
  %68 = add nsw i32 %67, 1
  store i32 %68, i32* %4, align 4
  br label %25

69:                                               ; preds = %25
  store i32 0, i32* %4, align 4
  br label %70

70:                                               ; preds = %100, %69
  %71 = load i32, i32* %4, align 4
  %72 = load i32, i32* %2, align 4
  %73 = icmp slt i32 %71, %72
  br i1 %73, label %74, label %103

74:                                               ; preds = %70
  %75 = load i32, i32* %4, align 4
  %76 = sext i32 %75 to i64
  %77 = getelementptr inbounds [300 x [2 x i32]], [300 x [2 x i32]]* %3, i64 0, i64 %76
  %78 = getelementptr inbounds [2 x i32], [2 x i32]* %77, i64 0, i64 1
  %79 = load i32, i32* %78, align 4
  %80 = icmp eq i32 %79, 1
  br i1 %80, label %81, label %99

81:                                               ; preds = %74
  %82 = load i32, i32* %4, align 4
  %83 = icmp ne i32 %82, 0
  br i1 %83, label %84, label %91

84:                                               ; preds = %81
  %85 = load i32, i32* %4, align 4
  %86 = sext i32 %85 to i64
  %87 = getelementptr inbounds [300 x [2 x i32]], [300 x [2 x i32]]* %3, i64 0, i64 %86
  %88 = getelementptr inbounds [2 x i32], [2 x i32]* %87, i64 0, i64 0
  %89 = load i32, i32* %88, align 8
  %90 = call i32 (i8*, ...) @printf(i8* getelementptr inbounds ([4 x i8], [4 x i8]* @.str.1, i64 0, i64 0), i32 %89)
  br label %98

91:                                               ; preds = %81
  %92 = load i32, i32* %4, align 4
  %93 = sext i32 %92 to i64
  %94 = getelementptr inbounds [300 x [2 x i32]], [300 x [2 x i32]]* %3, i64 0, i64 %93
  %95 = getelementptr inbounds [2 x i32], [2 x i32]* %94, i64 0, i64 0
  %96 = load i32, i32* %95, align 8
  %97 = call i32 (i8*, ...) @printf(i8* getelementptr inbounds ([3 x i8], [3 x i8]* @.str, i64 0, i64 0), i32 %96)
  br label %98

98:                                               ; preds = %91, %84
  br label %99

99:                                               ; preds = %98, %74
  br label %100

100:                                              ; preds = %99
  %101 = load i32, i32* %4, align 4
  %102 = add nsw i32 %101, 1
  store i32 %102, i32* %4, align 4
  br label %70

103:                                              ; preds = %70
  %104 = load i32, i32* %1, align 4
  ret i32 %104
}

declare dso_local i32 @__isoc99_scanf(i8*, ...) #1

declare dso_local i32 @printf(i8*, ...) #1


!llvm.module.flags = !{!0}
!llvm.ident = !{!1}

!0 = !{i32 1, !"wchar_size", i32 4}
!1 = !{!"clang version 10.0.0-4ubuntu1 "}
